; ModuleID = '39/1449.c'
source_filename = "39/1449.c"
target datalayout = "e-m:e-p270:32:32-p271:32:32-p272:64:64-i64:64-f80:128-n8:16:32:64-S128"
target triple = "x86_64-pc-linux-gnu"

%struct.inf = type { [30 x i8], i32, i32, i8, i8, i32 }

@.str = private unnamed_addr constant [3 x i8] c"%d\00", align 1
@.str.1 = private unnamed_addr constant [3 x i8] c"%s\00", align 1
@.str.2 = private unnamed_addr constant [6 x i8] c"%d %d\00", align 1
@.str.3 = private unnamed_addr constant [8 x i8] c" %c %c \00", align 1
@.str.4 = private unnamed_addr constant [4 x i8] c"%s\0A\00", align 1
@.str.5 = private unnamed_addr constant [4 x i8] c"%d\0A\00", align 1

; Function Attrs: noinline nounwind uwtable
define dso_local void @main() #0 {
  %1 = alloca i32, align 4
  %2 = alloca i32, align 4
  %3 = alloca i32, align 4
  %4 = alloca i32, align 4
  %5 = alloca [100 x i32], align 16
  %6 = alloca i32, align 4
  %7 = alloca [100 x %struct.inf], align 16
  store i32 0, i32* %4, align 4
  %8 = bitcast [100 x i32]* %5 to i8*
  call void @llvm.memset.p0i8.i64(i8* align 16 %8, i8 0, i64 400, i1 false)
  store i32 0, i32* %6, align 4
  %9 = call i32 (i8*, ...) @__isoc99_scanf(i8* getelementptr inbounds ([3 x i8], [3 x i8]* @.str, i64 0, i64 0), i32* %1)
  store i32 0, i32* %2, align 4
  br label %10

10:                                               ; preds = %44, %0
  %11 = load i32, i32* %2, align 4
  %12 = load i32, i32* %1, align 4
  %13 = icmp slt i32 %11, %12
  br i1 %13, label %14, label %47

14:                                               ; preds = %10
  %15 = load i32, i32* %2, align 4
  %16 = sext i32 %15 to i64
  %17 = getelementptr inbounds [100 x %struct.inf], [100 x %struct.inf]* %7, i64 0, i64 %16
  %18 = getelementptr inbounds %struct.inf, %struct.inf* %17, i32 0, i32 0
  %19 = getelementptr inbounds [30 x i8], [30 x i8]* %18, i64 0, i64 0
  %20 = call i32 (i8*, ...) @__isoc99_scanf(i8* getelementptr inbounds ([3 x i8], [3 x i8]* @.str.1, i64 0, i64 0), i8* %19)
  %21 = load i32, i32* %2, align 4
  %22 = sext i32 %21 to i64
  %23 = getelementptr inbounds [100 x %struct.inf], [100 x %struct.inf]* %7, i64 0, i64 %22
  %24 = getelementptr inbounds %struct.inf, %struct.inf* %23, i32 0, i32 1
  %25 = load i32, i32* %2, align 4
  %26 = sext i32 %25 to i64
  %27 = getelementptr inbounds [100 x %struct.inf], [100 x %struct.inf]* %7, i64 0, i64 %26
  %28 = getelementptr inbounds %struct.inf, %struct.inf* %27, i32 0, i32 2
  %29 = call i32 (i8*, ...) @__isoc99_scanf(i8* getelementptr inbounds ([6 x i8], [6 x i8]* @.str.2, i64 0, i64 0), i32* %24, i32* %28)
  %30 = load i32, i32* %2, align 4
  %31 = sext i32 %30 to i64
  %32 = getelementptr inbounds [100 x %struct.inf], [100 x %struct.inf]* %7, i64 0, i64 %31
  %33 = getelementptr inbounds %struct.inf, %struct.inf* %32, i32 0, i32 3
  %34 = load i32, i32* %2, align 4
  %35 = sext i32 %34 to i64
  %36 = getelementptr inbounds [100 x %struct.inf], [100 x %struct.inf]* %7, i64 0, i64 %35
  %37 = getelementptr inbounds %struct.inf, %struct.inf* %36, i32 0, i32 4
  %38 = call i32 (i8*, ...) @__isoc99_scanf(i8* getelementptr inbounds ([8 x i8], [8 x i8]* @.str.3, i64 0, i64 0), i8* %33, i8* %37)
  %39 = load i32, i32* %2, align 4
  %40 = sext i32 %39 to i64
  %41 = getelementptr inbounds [100 x %struct.inf], [100 x %struct.inf]* %7, i64 0, i64 %40
  %42 = getelementptr inbounds %struct.inf, %struct.inf* %41, i32 0, i32 5
  %43 = call i32 (i8*, ...) @__isoc99_scanf(i8* getelementptr inbounds ([3 x i8], [3 x i8]* @.str, i64 0, i64 0), i32* %42)
  br label %44

44:                                               ; preds = %14
  %45 = load i32, i32* %2, align 4
  %46 = add nsw i32 %45, 1
  store i32 %46, i32* %2, align 4
  br label %10

47:                                               ; preds = %10
  store i32 0, i32* %2, align 4
  br label %48

48:                                               ; preds = %163, %47
  %49 = load i32, i32* %2, align 4
  %50 = load i32, i32* %1, align 4
  %51 = icmp slt i32 %49, %50
  br i1 %51, label %52, label %166

52:                                               ; preds = %48
  %53 = load i32, i32* %2, align 4
  %54 = sext i32 %53 to i64
  %55 = getelementptr inbounds [100 x %struct.inf], [100 x %struct.inf]* %7, i64 0, i64 %54
  %56 = getelementptr inbounds %struct.inf, %struct.inf* %55, i32 0, i32 1
  %57 = load i32, i32* %56, align 16
  %58 = icmp sgt i32 %57, 80
  br i1 %58, label %59, label %75

59:                                               ; preds = %52
  %60 = load i32, i32* %2, align 4
  %61 = sext i32 %60 to i64
  %62 = getelementptr inbounds [100 x %struct.inf], [100 x %struct.inf]* %7, i64 0, i64 %61
  %63 = getelementptr inbounds %struct.inf, %struct.inf* %62, i32 0, i32 5
  %64 = load i32, i32* %63, align 4
  %65 = icmp sgt i32 %64, 0
  br i1 %65, label %66, label %75

66:                                               ; preds = %59
  %67 = load i32, i32* %2, align 4
  %68 = sext i32 %67 to i64
  %69 = getelementptr inbounds [100 x i32], [100 x i32]* %5, i64 0, i64 %68
  %70 = load i32, i32* %69, align 4
  %71 = add nsw i32 %70, 8000
  %72 = load i32, i32* %2, align 4
  %73 = sext i32 %72 to i64
  %74 = getelementptr inbounds [100 x i32], [100 x i32]* %5, i64 0, i64 %73
  store i32 %71, i32* %74, align 4
  br label %75

75:                                               ; preds = %66, %59, %52
  %76 = load i32, i32* %2, align 4
  %77 = sext i32 %76 to i64
  %78 = getelementptr inbounds [100 x %struct.inf], [100 x %struct.inf]* %7, i64 0, i64 %77
  %79 = getelementptr inbounds %struct.inf, %struct.inf* %78, i32 0, i32 1
  %80 = load i32, i32* %79, align 16
  %81 = icmp sgt i32 %80, 85
  br i1 %81, label %82, label %98

82:                                               ; preds = %75
  %83 = load i32, i32* %2, align 4
  %84 = sext i32 %83 to i64
  %85 = getelementptr inbounds [100 x %struct.inf], [100 x %struct.inf]* %7, i64 0, i64 %84
  %86 = getelementptr inbounds %struct.inf, %struct.inf* %85, i32 0, i32 2
  %87 = load i32, i32* %86, align 4
  %88 = icmp sgt i32 %87, 80
  br i1 %88, label %89, label %98

89:                                               ; preds = %82
  %90 = load i32, i32* %2, align 4
  %91 = sext i32 %90 to i64
  %92 = getelementptr inbounds [100 x i32], [100 x i32]* %5, i64 0, i64 %91
  %93 = load i32, i32* %92, align 4
  %94 = add nsw i32 %93, 4000
  %95 = load i32, i32* %2, align 4
  %96 = sext i32 %95 to i64
  %97 = getelementptr inbounds [100 x i32], [100 x i32]* %5, i64 0, i64 %96
  store i32 %94, i32* %97, align 4
  br label %98

98:                                               ; preds = %89, %82, %75
  %99 = load i32, i32* %2, align 4
  %100 = sext i32 %99 to i64
  %101 = getelementptr inbounds [100 x %struct.inf], [100 x %struct.inf]* %7, i64 0, i64 %100
  %102 = getelementptr inbounds %struct.inf, %struct.inf* %101, i32 0, i32 1
  %103 = load i32, i32* %102, align 16
  %104 = icmp sgt i32 %103, 90
  br i1 %104, label %105, label %114

105:                                              ; preds = %98
  %106 = load i32, i32* %2, align 4
  %107 = sext i32 %106 to i64
  %108 = getelementptr inbounds [100 x i32], [100 x i32]* %5, i64 0, i64 %107
  %109 = load i32, i32* %108, align 4
  %110 = add nsw i32 %109, 2000
  %111 = load i32, i32* %2, align 4
  %112 = sext i32 %111 to i64
  %113 = getelementptr inbounds [100 x i32], [100 x i32]* %5, i64 0, i64 %112
  store i32 %110, i32* %113, align 4
  br label %114

114:                                              ; preds = %105, %98
  %115 = load i32, i32* %2, align 4
  %116 = sext i32 %115 to i64
  %117 = getelementptr inbounds [100 x %struct.inf], [100 x %struct.inf]* %7, i64 0, i64 %116
  %118 = getelementptr inbounds %struct.inf, %struct.inf* %117, i32 0, i32 1
  %119 = load i32, i32* %118, align 16
  %120 = icmp sgt i32 %119, 85
  br i1 %120, label %121, label %138

121:                                              ; preds = %114
  %122 = load i32, i32* %2, align 4
  %123 = sext i32 %122 to i64
  %124 = getelementptr inbounds [100 x %struct.inf], [100 x %struct.inf]* %7, i64 0, i64 %123
  %125 = getelementptr inbounds %struct.inf, %struct.inf* %124, i32 0, i32 4
  %126 = load i8, i8* %125, align 1
  %127 = sext i8 %126 to i32
  %128 = icmp eq i32 %127, 89
  br i1 %128, label %129, label %138

129:                                              ; preds = %121
  %130 = load i32, i32* %2, align 4
  %131 = sext i32 %130 to i64
  %132 = getelementptr inbounds [100 x i32], [100 x i32]* %5, i64 0, i64 %131
  %133 = load i32, i32* %132, align 4
  %134 = add nsw i32 %133, 1000
  %135 = load i32, i32* %2, align 4
  %136 = sext i32 %135 to i64
  %137 = getelementptr inbounds [100 x i32], [100 x i32]* %5, i64 0, i64 %136
  store i32 %134, i32* %137, align 4
  br label %138

138:                                              ; preds = %129, %121, %114
  %139 = load i32, i32* %2, align 4
  %140 = sext i32 %139 to i64
  %141 = getelementptr inbounds [100 x %struct.inf], [100 x %struct.inf]* %7, i64 0, i64 %140
  %142 = getelementptr inbounds %struct.inf, %struct.inf* %141, i32 0, i32 2
  %143 = load i32, i32* %142, align 4
  %144 = icmp sgt i32 %143, 80
  br i1 %144, label %145, label %162

145:                                              ; preds = %138
  %146 = load i32, i32* %2, align 4
  %147 = sext i32 %146 to i64
  %148 = getelementptr inbounds [100 x %struct.inf], [100 x %struct.inf]* %7, i64 0, i64 %147
  %149 = getelementptr inbounds %struct.inf, %struct.inf* %148, i32 0, i32 3
  %150 = load i8, i8* %149, align 8
  %151 = sext i8 %150 to i32
  %152 = icmp eq i32 %151, 89
  br i1 %152, label %153, label %162

153:                                              ; preds = %145
  %154 = load i32, i32* %2, align 4
  %155 = sext i32 %154 to i64
  %156 = getelementptr inbounds [100 x i32], [100 x i32]* %5, i64 0, i64 %155
  %157 = load i32, i32* %156, align 4
  %158 = add nsw i32 %157, 850
  %159 = load i32, i32* %2, align 4
  %160 = sext i32 %159 to i64
  %161 = getelementptr inbounds [100 x i32], [100 x i32]* %5, i64 0, i64 %160
  store i32 %158, i32* %161, align 4
  br label %162

162:                                              ; preds = %153, %145, %138
  br label %163

163:                                              ; preds = %162
  %164 = load i32, i32* %2, align 4
  %165 = add nsw i32 %164, 1
  store i32 %165, i32* %2, align 4
  br label %48

166:                                              ; preds = %48
  store i32 0, i32* %2, align 4
  br label %167

167:                                              ; preds = %191, %166
  %168 = load i32, i32* %2, align 4
  %169 = load i32, i32* %1, align 4
  %170 = icmp slt i32 %168, %169
  br i1 %170, label %171, label %194

171:                                              ; preds = %167
  %172 = load i32, i32* %2, align 4
  %173 = sext i32 %172 to i64
  %174 = getelementptr inbounds [100 x i32], [100 x i32]* %5, i64 0, i64 %173
  %175 = load i32, i32* %174, align 4
  %176 = load i32, i32* %6, align 4
  %177 = icmp sgt i32 %175, %176
  br i1 %177, label %178, label %184

178:                                              ; preds = %171
  %179 = load i32, i32* %2, align 4
  %180 = sext i32 %179 to i64
  %181 = getelementptr inbounds [100 x i32], [100 x i32]* %5, i64 0, i64 %180
  %182 = load i32, i32* %181, align 4
  store i32 %182, i32* %6, align 4
  %183 = load i32, i32* %2, align 4
  store i32 %183, i32* %3, align 4
  br label %184

184:                                              ; preds = %178, %171
  %185 = load i32, i32* %2, align 4
  %186 = sext i32 %185 to i64
  %187 = getelementptr inbounds [100 x i32], [100 x i32]* %5, i64 0, i64 %186
  %188 = load i32, i32* %187, align 4
  %189 = load i32, i32* %4, align 4
  %190 = add nsw i32 %189, %188
  store i32 %190, i32* %4, align 4
  br label %191

191:                                              ; preds = %184
  %192 = load i32, i32* %2, align 4
  %193 = add nsw i32 %192, 1
  store i32 %193, i32* %2, align 4
  br label %167

194:                                              ; preds = %167
  %195 = load i32, i32* %3, align 4
  %196 = sext i32 %195 to i64
  %197 = getelementptr inbounds [100 x %struct.inf], [100 x %struct.inf]* %7, i64 0, i64 %196
  %198 = getelementptr inbounds %struct.inf, %struct.inf* %197, i32 0, i32 0
  %199 = getelementptr inbounds [30 x i8], [30 x i8]* %198, i64 0, i64 0
  %200 = call i32 (i8*, ...) @printf(i8* getelementptr inbounds ([4 x i8], [4 x i8]* @.str.4, i64 0, i64 0), i8* %199)
  %201 = load i32, i32* %6, align 4
  %202 = call i32 (i8*, ...) @printf(i8* getelementptr inbounds ([4 x i8], [4 x i8]* @.str.5, i64 0, i64 0), i32 %201)
  %203 = load i32, i32* %4, align 4
  %204 = call i32 (i8*, ...) @printf(i8* getelementptr inbounds ([3 x i8], [3 x i8]* @.str, i64 0, i64 0), i32 %203)
  ret void
}

; Function Attrs: argmemonly nounwind willreturn
declare void @llvm.memset.p0i8.i64(i8* nocapture writeonly, i8, i64, i1 immarg) #1

declare dso_local i32 @__isoc99_scanf(i8*, ...) #2

declare dso_local i32 @printf(i8*, ...) #2


!llvm.module.flags = !{!0}
!llvm.ident = !{!1}

!0 = !{i32 1, !"wchar_size", i32 4}
!1 = !{!"clang version 10.0.0-4ubuntu1 "}
